target datalayout = "e-m:e-p270:32:32-p271:32:32-p272:64:64-i64:64-i128:128-f80:128-n8:16:32:64-S128"
target triple = "x86_64-pc-linux-gnu"

%"class.Ipopt::SmartPtr.3" = type { ptr }
%"class.Ipopt::ReferencedObject" = type <{ ptr, i32, [4 x i8] }>

; Function Attrs: inlinehint mustprogress nounwind uwtable
define linkonce_odr noundef i32 @_ZNK5Ipopt16ReferencedObject14ReferenceCountEv(ptr noundef nonnull align 8 dereferenceable(12) %0) #6 comdat align 2 {
  %2 = alloca ptr, align 8
  store ptr %0, ptr %2, align 8, !tbaa !224
  %3 = load ptr, ptr %2, align 8
  %4 = getelementptr inbounds nuw %"class.Ipopt::ReferencedObject", ptr %3, i32 0, i32 1
  %5 = load i32, ptr %4, align 8, !tbaa !228
  ret i32 %5
}

; Function Attrs: inlinehint mustprogress nounwind uwtable
define linkonce_odr void @_ZNK5Ipopt16ReferencedObject10ReleaseRefEPKNS_10ReferencerE(ptr noundef nonnull align 8 dereferenceable(12) %0, ptr noundef %1) #6 comdat align 2 {
  %3 = alloca ptr, align 8
  %4 = alloca ptr, align 8
  store ptr %0, ptr %3, align 8, !tbaa !224
  store ptr %1, ptr %4, align 8, !tbaa !226
  %5 = load ptr, ptr %3, align 8
  %6 = getelementptr inbounds nuw %"class.Ipopt::ReferencedObject", ptr %5, i32 0, i32 1
  %7 = load i32, ptr %6, align 8, !tbaa !228
  %8 = add nsw i32 %7, -1
  store i32 %8, ptr %6, align 8, !tbaa !228
  ret void
}

; Function Attrs: mustprogress nounwind uwtable
define linkonce_odr void @_ZN5Ipopt8SmartPtrIKNS_9SymMatrixEE15ReleasePointer_Ev(ptr noundef nonnull align 8 dereferenceable(8) %0) #4 comdat align 2 {
  %2 = alloca ptr, align 8
  store ptr %0, ptr %2, align 8, !tbaa !65
  %3 = load ptr, ptr %2, align 8
  %4 = getelementptr inbounds nuw %"class.Ipopt::SmartPtr.3", ptr %3, i32 0, i32 0
  %5 = load ptr, ptr %4, align 8, !tbaa !67
  %6 = icmp ne ptr %5, null
  br i1 %6, label %7, label %25

7:                                                ; preds = %1
  %8 = getelementptr inbounds nuw %"class.Ipopt::SmartPtr.3", ptr %3, i32 0, i32 0
  %9 = load ptr, ptr %8, align 8, !tbaa !67
  call void @_ZNK5Ipopt16ReferencedObject10ReleaseRefEPKNS_10ReferencerE(ptr noundef nonnull align 8 dereferenceable(12) %9, ptr noundef %3)
  %10 = getelementptr inbounds nuw %"class.Ipopt::SmartPtr.3", ptr %3, i32 0, i32 0
  %11 = load ptr, ptr %10, align 8, !tbaa !67
  %12 = call noundef i32 @_ZNK5Ipopt16ReferencedObject14ReferenceCountEv(ptr noundef nonnull align 8 dereferenceable(12) %11)
  %13 = icmp eq i32 %12, 0
  br i1 %13, label %14, label %24

14:                                               ; preds = %7
  %15 = getelementptr inbounds nuw %"class.Ipopt::SmartPtr.3", ptr %3, i32 0, i32 0
  %16 = load ptr, ptr %15, align 8, !tbaa !67
  %17 = icmp eq ptr %16, null
  br i1 %17, label %22, label %18

18:                                               ; preds = %14
  %19 = load ptr, ptr %16, align 8, !tbaa !88
  %20 = getelementptr inbounds ptr, ptr %19, i64 1
  %21 = load ptr, ptr %20, align 8
  call void %21(ptr noundef nonnull align 8 dereferenceable(80) %16) #15
  br label %22

22:                                               ; preds = %18, %14
  %23 = getelementptr inbounds nuw %"class.Ipopt::SmartPtr.3", ptr %3, i32 0, i32 0
  store ptr null, ptr %23, align 8, !tbaa !67
  br label %24

24:                                               ; preds = %22, %7
  br label %25

25:                                               ; preds = %24, %1
  ret void
}

; Function Attrs: mustprogress nounwind uwtable
define linkonce_odr void @_ZN5Ipopt8SmartPtrIKNS_9SymMatrixEED2Ev(ptr noundef nonnull align 8 dereferenceable(8) %0) unnamed_addr #4 comdat align 2 {
  %2 = alloca ptr, align 8
  store ptr %0, ptr %2, align 8, !tbaa !65
  %3 = load ptr, ptr %2, align 8
  call void @_ZN5Ipopt8SmartPtrIKNS_9SymMatrixEE15ReleasePointer_Ev(ptr noundef nonnull align 8 dereferenceable(8) %3)
  ret void
}

; Function Attrs: mustprogress nounwind uwtable
define linkonce_odr noundef nonnull align 8 dereferenceable(80) ptr @_ZNK5Ipopt8SmartPtrIKNS_9SymMatrixEEdeEv(ptr noundef nonnull align 8 dereferenceable(8) %0) #4 comdat align 2 {
  %2 = alloca ptr, align 8
  store ptr %0, ptr %2, align 8, !tbaa !65
  %3 = load ptr, ptr %2, align 8
  %4 = getelementptr inbounds nuw %"class.Ipopt::SmartPtr.3", ptr %3, i32 0, i32 0
  %5 = load ptr, ptr %4, align 8, !tbaa !67
  ret ptr %5
}

; Function Attrs: mustprogress nounwind uwtable
define linkonce_odr void @_ZN5Ipopt8SmartPtrIKNS_9SymMatrixEEC2Ev(ptr noundef nonnull align 8 dereferenceable(8) %0) unnamed_addr #4 comdat align 2 {
  %2 = alloca ptr, align 8
  store ptr %0, ptr %2, align 8, !tbaa !65
  %3 = load ptr, ptr %2, align 8
  %4 = getelementptr inbounds nuw %"class.Ipopt::SmartPtr.3", ptr %3, i32 0, i32 0
  store ptr null, ptr %4, align 8, !tbaa !67
  ret void
}

; Function Attrs: mustprogress uwtable
define noundef i32 @_ZN5Ipopt13TripletHelper17GetNumberEntries_ERKNS_12SumSymMatrixE(ptr noundef nonnull align 8 dereferenceable(136) %0) #0 align 2 personality ptr @__gxx_personality_v0 {
  %2 = alloca ptr, align 8
  %3 = alloca i32, align 4
  %4 = alloca i32, align 4
  %5 = alloca i32, align 4
  %6 = alloca double, align 8
  %7 = alloca %"class.Ipopt::SmartPtr.3", align 8
  %8 = alloca ptr, align 8
  %9 = alloca i32, align 4
  store ptr %0, ptr %2, align 8, !tbaa !24
  call void @llvm.lifetime.start.p0(i64 4, ptr %3) #15
  store i32 0, ptr %3, align 4, !tbaa !72
  call void @llvm.lifetime.start.p0(i64 4, ptr %4) #15
  %10 = load ptr, ptr %2, align 8, !tbaa !24
  %11 = call noundef i32 @_ZNK5Ipopt12SumSymMatrix6NTermsEv(ptr noundef nonnull align 8 dereferenceable(136) %10)
  store i32 %11, ptr %4, align 4, !tbaa !72
  call void @llvm.lifetime.start.p0(i64 4, ptr %5) #15
  store i32 0, ptr %5, align 4, !tbaa !72
  br label %12

12:                                               ; preds = %27, %1
  %13 = load i32, ptr %5, align 4, !tbaa !72
  %14 = load i32, ptr %4, align 4, !tbaa !72
  %15 = icmp slt i32 %13, %14
  br i1 %15, label %17, label %16

16:                                               ; preds = %12
  call void @llvm.lifetime.end.p0(i64 4, ptr %5) #15
  br label %34

17:                                               ; preds = %12
  call void @llvm.lifetime.start.p0(i64 8, ptr %6) #15
  call void @llvm.lifetime.start.p0(i64 8, ptr %7) #15
  call void @_ZN5Ipopt8SmartPtrIKNS_9SymMatrixEEC2Ev(ptr noundef nonnull align 8 dereferenceable(8) %7)
  %18 = load ptr, ptr %2, align 8, !tbaa !24
  %19 = load i32, ptr %5, align 4, !tbaa !72
  invoke void @_ZNK5Ipopt12SumSymMatrix7GetTermEiRdRNS_8SmartPtrIKNS_9SymMatrixEEE(ptr noundef nonnull align 8 dereferenceable(136) %18, i32 noundef %19, ptr noundef nonnull align 8 dereferenceable(8) %6, ptr noundef nonnull align 8 dereferenceable(8) %7)
          to label %20 unwind label %30

20:                                               ; preds = %17
  %21 = invoke noundef nonnull align 8 dereferenceable(80) ptr @_ZNK5Ipopt8SmartPtrIKNS_9SymMatrixEEdeEv(ptr noundef nonnull align 8 dereferenceable(8) %7)
          to label %22 unwind label %30

22:                                               ; preds = %20
  %23 = invoke noundef i32 @_ZN5Ipopt13TripletHelper16GetNumberEntriesERKNS_6MatrixE(ptr noundef nonnull align 8 dereferenceable(69) %21)
          to label %24 unwind label %30

24:                                               ; preds = %22
  %25 = load i32, ptr %3, align 4, !tbaa !72
  %26 = add nsw i32 %25, %23
  store i32 %26, ptr %3, align 4, !tbaa !72
  call void @_ZN5Ipopt8SmartPtrIKNS_9SymMatrixEED2Ev(ptr noundef nonnull align 8 dereferenceable(8) %7) #15
  call void @llvm.lifetime.end.p0(i64 8, ptr %7) #15
  call void @llvm.lifetime.end.p0(i64 8, ptr %6) #15
  br label %27

27:                                               ; preds = %24
  %28 = load i32, ptr %5, align 4, !tbaa !72
  %29 = add nsw i32 %28, 1
  store i32 %29, ptr %5, align 4, !tbaa !72
  br label %12, !llvm.loop !75

30:                                               ; preds = %22, %20, %17
  %31 = landingpad { ptr, i32 }
          cleanup
  %32 = extractvalue { ptr, i32 } %31, 0
  store ptr %32, ptr %8, align 8
  %33 = extractvalue { ptr, i32 } %31, 1
  store i32 %33, ptr %9, align 4
  call void @_ZN5Ipopt8SmartPtrIKNS_9SymMatrixEED2Ev(ptr noundef nonnull align 8 dereferenceable(8) %7) #15
  call void @llvm.lifetime.end.p0(i64 8, ptr %7) #15
  call void @llvm.lifetime.end.p0(i64 8, ptr %6) #15
  call void @llvm.lifetime.end.p0(i64 4, ptr %5) #15
  call void @llvm.lifetime.end.p0(i64 4, ptr %4) #15
  call void @llvm.lifetime.end.p0(i64 4, ptr %3) #15
  br label %36

34:                                               ; preds = %16
  %35 = load i32, ptr %3, align 4, !tbaa !72
  call void @llvm.lifetime.end.p0(i64 4, ptr %4) #15
  call void @llvm.lifetime.end.p0(i64 4, ptr %3) #15
  ret i32 %35

36:                                               ; preds = %30
  %37 = load ptr, ptr %8, align 8
  %38 = load i32, ptr %9, align 4
  %39 = insertvalue { ptr, i32 } poison, ptr %37, 0
  %40 = insertvalue { ptr, i32 } %39, i32 %38, 1
  resume { ptr, i32 } %40
}